target datalayout = "e-m:e-p270:32:32-p271:32:32-p272:64:64-i64:64-i128:128-f80:128-n8:16:32:64-S128"
target triple = "x86_64-unknown-linux-gnu"

%"class.boost::detail::shared_count" = type { ptr }
%"class.std::vector" = type { %"struct.std::_Vector_base" }
%"struct.std::_Vector_base" = type { %"struct.std::_Vector_base<double, std::allocator<double>>::_Vector_impl" }
%"struct.std::_Vector_base<double, std::allocator<double>>::_Vector_impl" = type { %"struct.std::_Vector_base<double, std::allocator<double>>::_Vector_impl_data" }
%"struct.std::_Vector_base<double, std::allocator<double>>::_Vector_impl_data" = type { ptr, ptr, ptr }
%"class.QuantLib::FdmStepConditionComposite" = type { %"class.QuantLib::StepCondition", %"class.std::vector", %"class.std::__cxx11::list" }
%"class.QuantLib::StepCondition" = type { ptr }
%"class.std::__cxx11::list" = type { %"class.std::__cxx11::_List_base" }
%"class.std::__cxx11::_List_base" = type { %"struct.std::__cxx11::_List_base<boost::shared_ptr<QuantLib::StepCondition<QuantLib::Array>>, std::allocator<boost::shared_ptr<QuantLib::StepCondition<QuantLib::Array>>>>::_List_impl" }
%"struct.std::__cxx11::_List_base<boost::shared_ptr<QuantLib::StepCondition<QuantLib::Array>>, std::allocator<boost::shared_ptr<QuantLib::StepCondition<QuantLib::Array>>>>::_List_impl" = type { %"struct.std::__detail::_List_node_header" }
%"struct.std::__detail::_List_node_header" = type { %"struct.std::__detail::_List_node_base", i64 }
%"struct.std::__detail::_List_node_base" = type { ptr, ptr }
%"struct.std::_List_const_iterator.36" = type { ptr }
%"class.boost::shared_ptr.37" = type { ptr, %"class.boost::detail::shared_count" }
%"struct.std::_List_node" = type { %"struct.std::__detail::_List_node_base", %"struct.__gnu_cxx::__aligned_membuf.65" }
%"struct.__gnu_cxx::__aligned_membuf.65" = type { [16 x i8] }

@.str.9 = private unnamed_addr constant [8 x i8] c"px != 0\00", align 1
@.str.10 = private unnamed_addr constant [102 x i8] c"generated/home/dtcxzyw/WorkSpace/SDK/vcpkg/installed/x64-linux/include/boost/smart_ptr/shared_ptr.hpp\00", align 1

; Function Attrs: mustprogress nounwind uwtable
define linkonce_odr noundef ptr @_ZNK9__gnu_cxx16__aligned_membufIN5boost10shared_ptrIN8QuantLib13StepConditionINS3_5ArrayEEEEEE7_M_addrEv(ptr noundef nonnull align 8 dereferenceable(16) %this) #5 comdat align 2 {
entry:
  %this.addr = alloca ptr, align 8
  store ptr %this, ptr %this.addr, align 8, !tbaa !3
  %this1 = load ptr, ptr %this.addr, align 8
  %_M_storage = getelementptr inbounds nuw %"struct.__gnu_cxx::__aligned_membuf.65", ptr %this1, i32 0, i32 0
  ret ptr %_M_storage
}

; Function Attrs: mustprogress nounwind uwtable
define linkonce_odr noundef ptr @_ZNK9__gnu_cxx16__aligned_membufIN5boost10shared_ptrIN8QuantLib13StepConditionINS3_5ArrayEEEEEE6_M_ptrEv(ptr noundef nonnull align 8 dereferenceable(16) %this) #5 comdat align 2 {
entry:
  %this.addr = alloca ptr, align 8
  store ptr %this, ptr %this.addr, align 8, !tbaa !3
  %this1 = load ptr, ptr %this.addr, align 8
  %call = call noundef ptr @_ZNK9__gnu_cxx16__aligned_membufIN5boost10shared_ptrIN8QuantLib13StepConditionINS3_5ArrayEEEEEE7_M_addrEv(ptr noundef nonnull align 8 dereferenceable(16) %this1) #17
  ret ptr %call
}

; Function Attrs: noinline noreturn nounwind uwtable
define linkonce_odr hidden void @__clang_call_terminate(ptr noundef %0) #1 comdat {
  %2 = call ptr @__cxa_begin_catch(ptr %0) #17
  call void @_ZSt9terminatev() #18
  unreachable
}

; Function Attrs: mustprogress nounwind uwtable
define linkonce_odr noundef ptr @_ZNKSt10_List_nodeIN5boost10shared_ptrIN8QuantLib13StepConditionINS2_5ArrayEEEEEE9_M_valptrEv(ptr noundef nonnull align 8 dereferenceable(32) %this) #5 comdat align 2 {
entry:
  %this.addr = alloca ptr, align 8
  store ptr %this, ptr %this.addr, align 8, !tbaa !3
  %this1 = load ptr, ptr %this.addr, align 8
  %_M_storage = getelementptr inbounds nuw %"struct.std::_List_node", ptr %this1, i32 0, i32 1
  %call = call noundef ptr @_ZNK9__gnu_cxx16__aligned_membufIN5boost10shared_ptrIN8QuantLib13StepConditionINS3_5ArrayEEEEEE6_M_ptrEv(ptr noundef nonnull align 8 dereferenceable(16) %_M_storage) #17
  ret ptr %call
}

; Function Attrs: mustprogress nounwind uwtable
define linkonce_odr void @_ZNSt20_List_const_iteratorIN5boost10shared_ptrIN8QuantLib13StepConditionINS2_5ArrayEEEEEEC2EPKNSt8__detail15_List_node_baseE(ptr noundef nonnull align 8 dereferenceable(8) %this, ptr noundef %__x) unnamed_addr #5 comdat align 2 {
entry:
  %this.addr = alloca ptr, align 8
  %__x.addr = alloca ptr, align 8
  store ptr %this, ptr %this.addr, align 8, !tbaa !3
  store ptr %__x, ptr %__x.addr, align 8, !tbaa !3
  %this1 = load ptr, ptr %this.addr, align 8
  %_M_node = getelementptr inbounds nuw %"struct.std::_List_const_iterator.36", ptr %this1, i32 0, i32 0
  %0 = load ptr, ptr %__x.addr, align 8, !tbaa !3
  store ptr %0, ptr %_M_node, align 8, !tbaa !21
  ret void
}

; Function Attrs: mustprogress nounwind uwtable
define linkonce_odr noundef nonnull align 8 dereferenceable(8) ptr @_ZNSt20_List_const_iteratorIN5boost10shared_ptrIN8QuantLib13StepConditionINS2_5ArrayEEEEEEppEv(ptr noundef nonnull align 8 dereferenceable(8) %this) #5 comdat align 2 {
entry:
  %this.addr = alloca ptr, align 8
  store ptr %this, ptr %this.addr, align 8, !tbaa !3
  %this1 = load ptr, ptr %this.addr, align 8
  %_M_node = getelementptr inbounds nuw %"struct.std::_List_const_iterator.36", ptr %this1, i32 0, i32 0
  %0 = load ptr, ptr %_M_node, align 8, !tbaa !21
  %_M_next = getelementptr inbounds nuw %"struct.std::__detail::_List_node_base", ptr %0, i32 0, i32 0
  %1 = load ptr, ptr %_M_next, align 8, !tbaa !9
  %_M_node2 = getelementptr inbounds nuw %"struct.std::_List_const_iterator.36", ptr %this1, i32 0, i32 0
  store ptr %1, ptr %_M_node2, align 8, !tbaa !21
  ret ptr %this1
}

; Function Attrs: mustprogress uwtable
define linkonce_odr noundef ptr @_ZNK5boost10shared_ptrIN8QuantLib13StepConditionINS1_5ArrayEEEEptEv(ptr noundef nonnull align 8 dereferenceable(16) %this) #3 comdat align 2 {
entry:
  %this.addr = alloca ptr, align 8
  store ptr %this, ptr %this.addr, align 8, !tbaa !3
  %this1 = load ptr, ptr %this.addr, align 8
  %px = getelementptr inbounds nuw %"class.boost::shared_ptr.37", ptr %this1, i32 0, i32 0
  %0 = load ptr, ptr %px, align 8, !tbaa !23
  %cmp = icmp ne ptr %0, null
  %lnot = xor i1 %cmp, true
  %lnot2 = xor i1 %lnot, true
  %conv = zext i1 %lnot2 to i64
  %expval = call i64 @llvm.expect.i64(i64 %conv, i64 1)
  %tobool = icmp ne i64 %expval, 0
  br i1 %tobool, label %cond.true, label %cond.false

cond.true:                                        ; preds = %entry
  br label %cond.end

cond.false:                                       ; preds = %entry
  call void @_ZN5boost16assertion_failedEPKcS1_S1_l(ptr noundef @.str.9, ptr noundef @__PRETTY_FUNCTION__._ZNK5boost10shared_ptrIN8QuantLib13StepConditionINS1_5ArrayEEEEptEv, ptr noundef @.str.10, i64 noundef 784)
  br label %cond.end

cond.end:                                         ; preds = %cond.false, %cond.true
  %px3 = getelementptr inbounds nuw %"class.boost::shared_ptr.37", ptr %this1, i32 0, i32 0
  %1 = load ptr, ptr %px3, align 8, !tbaa !23
  ret ptr %1
}

; Function Attrs: mustprogress nounwind uwtable
define linkonce_odr noundef nonnull align 8 dereferenceable(16) ptr @_ZNKSt20_List_const_iteratorIN5boost10shared_ptrIN8QuantLib13StepConditionINS2_5ArrayEEEEEEdeEv(ptr noundef nonnull align 8 dereferenceable(8) %this) #5 comdat align 2 personality ptr @__gxx_personality_v0 {
entry:
  %this.addr = alloca ptr, align 8
  store ptr %this, ptr %this.addr, align 8, !tbaa !3
  %this1 = load ptr, ptr %this.addr, align 8
  %_M_node = getelementptr inbounds nuw %"struct.std::_List_const_iterator.36", ptr %this1, i32 0, i32 0
  %0 = load ptr, ptr %_M_node, align 8, !tbaa !21
  %call = invoke noundef ptr @_ZNKSt10_List_nodeIN5boost10shared_ptrIN8QuantLib13StepConditionINS2_5ArrayEEEEEE9_M_valptrEv(ptr noundef nonnull align 8 dereferenceable(32) %0)
          to label %invoke.cont unwind label %terminate.lpad

invoke.cont:                                      ; preds = %entry
  ret ptr %call

terminate.lpad:                                   ; preds = %entry
  %1 = landingpad { ptr, i32 }
          catch ptr null
  %2 = extractvalue { ptr, i32 } %1, 0
  call void @__clang_call_terminate(ptr %2) #18
  unreachable
}

; Function Attrs: mustprogress nounwind uwtable
define linkonce_odr noundef zeroext i1 @_ZStneRKSt20_List_const_iteratorIN5boost10shared_ptrIN8QuantLib13StepConditionINS2_5ArrayEEEEEES9_(ptr noundef nonnull align 8 dereferenceable(8) %__x, ptr noundef nonnull align 8 dereferenceable(8) %__y) #5 comdat {
entry:
  %__x.addr = alloca ptr, align 8
  %__y.addr = alloca ptr, align 8
  store ptr %__x, ptr %__x.addr, align 8, !tbaa !3
  store ptr %__y, ptr %__y.addr, align 8, !tbaa !3
  %0 = load ptr, ptr %__x.addr, align 8, !tbaa !3
  %_M_node = getelementptr inbounds nuw %"struct.std::_List_const_iterator.36", ptr %0, i32 0, i32 0
  %1 = load ptr, ptr %_M_node, align 8, !tbaa !21
  %2 = load ptr, ptr %__y.addr, align 8, !tbaa !3
  %_M_node1 = getelementptr inbounds nuw %"struct.std::_List_const_iterator.36", ptr %2, i32 0, i32 0
  %3 = load ptr, ptr %_M_node1, align 8, !tbaa !21
  %cmp = icmp ne ptr %1, %3
  ret i1 %cmp
}

; Function Attrs: mustprogress nounwind uwtable
define linkonce_odr ptr @_ZNKSt7__cxx114listIN5boost10shared_ptrIN8QuantLib13StepConditionINS3_5ArrayEEEEESaIS7_EE3endEv(ptr noundef nonnull align 8 dereferenceable(24) %this) #5 comdat align 2 {
entry:
  %retval = alloca %"struct.std::_List_const_iterator.36", align 8
  %this.addr = alloca ptr, align 8
  store ptr %this, ptr %this.addr, align 8, !tbaa !3
  %this1 = load ptr, ptr %this.addr, align 8
  %_M_impl = getelementptr inbounds nuw %"class.std::__cxx11::_List_base", ptr %this1, i32 0, i32 0
  %_M_node = getelementptr inbounds nuw %"struct.std::__cxx11::_List_base<boost::shared_ptr<QuantLib::StepCondition<QuantLib::Array>>, std::allocator<boost::shared_ptr<QuantLib::StepCondition<QuantLib::Array>>>>::_List_impl", ptr %_M_impl, i32 0, i32 0
  call void @_ZNSt20_List_const_iteratorIN5boost10shared_ptrIN8QuantLib13StepConditionINS2_5ArrayEEEEEEC2EPKNSt8__detail15_List_node_baseE(ptr noundef nonnull align 8 dereferenceable(8) %retval, ptr noundef %_M_node) #17
  %coerce.dive = getelementptr inbounds nuw %"struct.std::_List_const_iterator.36", ptr %retval, i32 0, i32 0
  %0 = load ptr, ptr %coerce.dive, align 8
  ret ptr %0
}

; Function Attrs: mustprogress nounwind uwtable
define linkonce_odr ptr @_ZNKSt7__cxx114listIN5boost10shared_ptrIN8QuantLib13StepConditionINS3_5ArrayEEEEESaIS7_EE5beginEv(ptr noundef nonnull align 8 dereferenceable(24) %this) #5 comdat align 2 {
entry:
  %retval = alloca %"struct.std::_List_const_iterator.36", align 8
  %this.addr = alloca ptr, align 8
  store ptr %this, ptr %this.addr, align 8, !tbaa !3
  %this1 = load ptr, ptr %this.addr, align 8
  %_M_impl = getelementptr inbounds nuw %"class.std::__cxx11::_List_base", ptr %this1, i32 0, i32 0
  %_M_node = getelementptr inbounds nuw %"struct.std::__cxx11::_List_base<boost::shared_ptr<QuantLib::StepCondition<QuantLib::Array>>, std::allocator<boost::shared_ptr<QuantLib::StepCondition<QuantLib::Array>>>>::_List_impl", ptr %_M_impl, i32 0, i32 0
  %_M_next = getelementptr inbounds nuw %"struct.std::__detail::_List_node_base", ptr %_M_node, i32 0, i32 0
  %0 = load ptr, ptr %_M_next, align 8, !tbaa !9
  call void @_ZNSt20_List_const_iteratorIN5boost10shared_ptrIN8QuantLib13StepConditionINS2_5ArrayEEEEEEC2EPKNSt8__detail15_List_node_baseE(ptr noundef nonnull align 8 dereferenceable(8) %retval, ptr noundef %0) #17
  %coerce.dive = getelementptr inbounds nuw %"struct.std::_List_const_iterator.36", ptr %retval, i32 0, i32 0
  %1 = load ptr, ptr %coerce.dive, align 8
  ret ptr %1
}

; Function Attrs: mustprogress uwtable
define void @_ZNK8QuantLib25FdmStepConditionComposite7applyToERNS_5ArrayEd(ptr noundef nonnull align 8 dereferenceable(56) %this, ptr noundef nonnull align 8 dereferenceable(16) %a, double noundef %t) unnamed_addr #3 align 2 {
entry:
  %this.addr = alloca ptr, align 8
  %a.addr = alloca ptr, align 8
  %t.addr = alloca double, align 8
  %__range1 = alloca ptr, align 8
  %__begin1 = alloca %"struct.std::_List_const_iterator.36", align 8
  %__end1 = alloca %"struct.std::_List_const_iterator.36", align 8
  %condition = alloca ptr, align 8
  store ptr %this, ptr %this.addr, align 8, !tbaa !3
  store ptr %a, ptr %a.addr, align 8, !tbaa !3
  store double %t, ptr %t.addr, align 8, !tbaa !19
  %this1 = load ptr, ptr %this.addr, align 8
  call void @llvm.lifetime.start.p0(i64 8, ptr %__range1) #17
  %conditions_ = getelementptr inbounds nuw %"class.QuantLib::FdmStepConditionComposite", ptr %this1, i32 0, i32 2
  store ptr %conditions_, ptr %__range1, align 8, !tbaa !3
  call void @llvm.lifetime.start.p0(i64 8, ptr %__begin1) #17
  %0 = load ptr, ptr %__range1, align 8, !tbaa !3
  %call = call ptr @_ZNKSt7__cxx114listIN5boost10shared_ptrIN8QuantLib13StepConditionINS3_5ArrayEEEEESaIS7_EE5beginEv(ptr noundef nonnull align 8 dereferenceable(24) %0) #17
  %coerce.dive = getelementptr inbounds nuw %"struct.std::_List_const_iterator.36", ptr %__begin1, i32 0, i32 0
  store ptr %call, ptr %coerce.dive, align 8
  call void @llvm.lifetime.start.p0(i64 8, ptr %__end1) #17
  %1 = load ptr, ptr %__range1, align 8, !tbaa !3
  %call2 = call ptr @_ZNKSt7__cxx114listIN5boost10shared_ptrIN8QuantLib13StepConditionINS3_5ArrayEEEEESaIS7_EE3endEv(ptr noundef nonnull align 8 dereferenceable(24) %1) #17
  %coerce.dive3 = getelementptr inbounds nuw %"struct.std::_List_const_iterator.36", ptr %__end1, i32 0, i32 0
  store ptr %call2, ptr %coerce.dive3, align 8
  br label %for.cond

for.cond:                                         ; preds = %for.inc, %entry
  %call4 = call noundef zeroext i1 @_ZStneRKSt20_List_const_iteratorIN5boost10shared_ptrIN8QuantLib13StepConditionINS2_5ArrayEEEEEES9_(ptr noundef nonnull align 8 dereferenceable(8) %__begin1, ptr noundef nonnull align 8 dereferenceable(8) %__end1) #17
  br i1 %call4, label %for.body, label %for.cond.cleanup

for.cond.cleanup:                                 ; preds = %for.cond
  call void @llvm.lifetime.end.p0(i64 8, ptr %__end1) #17
  call void @llvm.lifetime.end.p0(i64 8, ptr %__begin1) #17
  call void @llvm.lifetime.end.p0(i64 8, ptr %__range1) #17
  br label %for.end

for.body:                                         ; preds = %for.cond
  call void @llvm.lifetime.start.p0(i64 8, ptr %condition) #17
  %call5 = call noundef nonnull align 8 dereferenceable(16) ptr @_ZNKSt20_List_const_iteratorIN5boost10shared_ptrIN8QuantLib13StepConditionINS2_5ArrayEEEEEEdeEv(ptr noundef nonnull align 8 dereferenceable(8) %__begin1) #17
  store ptr %call5, ptr %condition, align 8, !tbaa !3
  %2 = load ptr, ptr %condition, align 8, !tbaa !3
  %call6 = call noundef ptr @_ZNK5boost10shared_ptrIN8QuantLib13StepConditionINS1_5ArrayEEEEptEv(ptr noundef nonnull align 8 dereferenceable(16) %2)
  %3 = load ptr, ptr %a.addr, align 8, !tbaa !3
  %4 = load double, ptr %t.addr, align 8, !tbaa !19
  %vtable = load ptr, ptr %call6, align 8, !tbaa !7
  %vfn = getelementptr inbounds ptr, ptr %vtable, i64 2
  %5 = load ptr, ptr %vfn, align 8
  call void %5(ptr noundef nonnull align 8 dereferenceable(8) %call6, ptr noundef nonnull align 8 dereferenceable(16) %3, double noundef %4)
  call void @llvm.lifetime.end.p0(i64 8, ptr %condition) #17
  br label %for.inc

for.inc:                                          ; preds = %for.body
  %call7 = call noundef nonnull align 8 dereferenceable(8) ptr @_ZNSt20_List_const_iteratorIN5boost10shared_ptrIN8QuantLib13StepConditionINS2_5ArrayEEEEEEppEv(ptr noundef nonnull align 8 dereferenceable(8) %__begin1) #17
  br label %for.cond

for.end:                                          ; preds = %for.cond.cleanup
  ret void
}