; Function Attrs: mustprogress uwtable
define void @_ZNK8QuantLib25FdmStepConditionComposite7applyToERNS_5ArrayEd(ptr noundef nonnull readonly align 8 dereferenceable(56) %this, ptr noundef nonnull align 8 dereferenceable(16) %a, double noundef %t) unnamed_addr #3 align 2 personality ptr @__gxx_personality_v0 {
entry:
  %conditions_ = getelementptr inbounds nuw i8, ptr %this, i64 32
  %__begin1.sroa.0.04 = load ptr, ptr %conditions_, align 8, !tbaa !18
  %cmp.i.not5 = icmp eq ptr %__begin1.sroa.0.04, %conditions_
  br i1 %cmp.i.not5, label %for.cond.cleanup, label %for.body

for.cond.cleanup:                                 ; preds = %_ZNK5boost10shared_ptrIN8QuantLib13StepConditionINS1_5ArrayEEEEptEv.exit, %entry
  ret void

for.body:                                         ; preds = %entry, %_ZNK5boost10shared_ptrIN8QuantLib13StepConditionINS1_5ArrayEEEEptEv.exit
  %__begin1.sroa.0.06 = phi ptr [ %__begin1.sroa.0.0, %_ZNK5boost10shared_ptrIN8QuantLib13StepConditionINS1_5ArrayEEEEptEv.exit ], [ %__begin1.sroa.0.04, %entry ]
  %_M_storage.i.i = getelementptr inbounds nuw i8, ptr %__begin1.sroa.0.06, i64 16
  %0 = load ptr, ptr %_M_storage.i.i, align 8, !tbaa !44
  %cmp.not.i = icmp eq ptr %0, null
  br i1 %cmp.not.i, label %cond.false.i, label %_ZNK5boost10shared_ptrIN8QuantLib13StepConditionINS1_5ArrayEEEEptEv.exit, !prof !46

cond.false.i:                                     ; preds = %for.body
  tail call void @_ZN5boost16assertion_failedEPKcS1_S1_l(ptr noundef nonnull @.str.9, ptr noundef nonnull @__PRETTY_FUNCTION__._ZNK5boost10shared_ptrIN8QuantLib13StepConditionINS1_5ArrayEEEEptEv, ptr noundef nonnull @.str.10, i64 noundef 784)
  %.pre.i = load ptr, ptr %_M_storage.i.i, align 8, !tbaa !44
  br label %_ZNK5boost10shared_ptrIN8QuantLib13StepConditionINS1_5ArrayEEEEptEv.exit

_ZNK5boost10shared_ptrIN8QuantLib13StepConditionINS1_5ArrayEEEEptEv.exit: ; preds = %for.body, %cond.false.i
  %1 = phi ptr [ %0, %for.body ], [ %.pre.i, %cond.false.i ]
  %vtable = load ptr, ptr %1, align 8, !tbaa !14
  %vfn = getelementptr inbounds i8, ptr %vtable, i64 16
  %2 = load ptr, ptr %vfn, align 8
  tail call void %2(ptr noundef nonnull align 8 dereferenceable(8) %1, ptr noundef nonnull align 8 dereferenceable(16) %a, double noundef %t)
  %__begin1.sroa.0.0 = load ptr, ptr %__begin1.sroa.0.06, align 8, !tbaa !18
  %cmp.i.not = icmp eq ptr %__begin1.sroa.0.0, %conditions_
  br i1 %cmp.i.not, label %for.cond.cleanup, label %for.body
}